; Function Attrs: mustprogress nofree norecurse nosync nounwind willreturn memory(read, inaccessiblemem: none) uwtable
define hidden noundef zeroext i1 @_ZNK3euf5enode7reachesEPS0_(ptr noundef nonnull readonly align 8 captures(address) dereferenceable(176) %0, ptr noundef readnone captures(address) %1) local_unnamed_addr #5 align 2 {
  %.not9 = icmp eq ptr %0, %1
  br i1 %.not9, label %._crit_edge, label %.lr.ph

.lr.ph:                                           ; preds = %2, %.lr.ph
  %.08 = phi ptr [ %4, %.lr.ph ], [ %0, %2 ]
  %3 = getelementptr inbounds nuw i8, ptr %.08, i64 72
  %4 = load ptr, ptr %3, align 8, !tbaa !25
  %.not = icmp ne ptr %4, null
  %5 = icmp ne ptr %4, %1
  %or.cond.not = and i1 %5, %.not
  br i1 %or.cond.not, label %.lr.ph, label %._crit_edge, !llvm.loop !46

._crit_edge:                                      ; preds = %.lr.ph, %2
  %.not.lcssa = phi i1 [ true, %2 ], [ %.not, %.lr.ph ]
  ret i1 %.not.lcssa
}